; ModuleID = '2/400.c'
source_filename = "2/400.c"
target datalayout = "e-m:e-p270:32:32-p271:32:32-p272:64:64-i64:64-f80:128-n8:16:32:64-S128"
target triple = "x86_64-pc-linux-gnu"

%struct.anon = type { i32, [27 x i8] }

@.str = private unnamed_addr constant [3 x i8] c"%d\00", align 1
@.str.1 = private unnamed_addr constant [5 x i8] c"%d%s\00", align 1
@book = common dso_local global [999 x %struct.anon] zeroinitializer, align 16
@.str.2 = private unnamed_addr constant [7 x i8] c"%c\0A%d\0A\00", align 1
@.str.3 = private unnamed_addr constant [4 x i8] c"%d\0A\00", align 1

; Function Attrs: noinline nounwind uwtable
define dso_local i32 @main() #0 {
  %1 = alloca i32, align 4
  %2 = alloca i32, align 4
  %3 = alloca [26 x i32], align 16
  %4 = alloca i32, align 4
  %5 = alloca i32, align 4
  %6 = alloca i32, align 4
  %7 = alloca i32, align 4
  %8 = alloca i32, align 4
  %9 = alloca i32, align 4
  %10 = alloca i8, align 1
  %11 = alloca i32, align 4
  store i32 0, i32* %1, align 4
  %12 = bitcast [26 x i32]* %3 to i8*
  call void @llvm.memset.p0i8.i64(i8* align 16 %12, i8 0, i64 104, i1 false)
  store i32 0, i32* %7, align 4
  %13 = call i32 (i8*, ...) @__isoc99_scanf(i8* getelementptr inbounds ([3 x i8], [3 x i8]* @.str, i64 0, i64 0), i32* %2)
  store i32 0, i32* %4, align 4
  br label %14

14:                                               ; preds = %95, %0
  %15 = load i32, i32* %4, align 4
  %16 = load i32, i32* %2, align 4
  %17 = icmp slt i32 %15, %16
  br i1 %17, label %18, label %98

18:                                               ; preds = %14
  %19 = load i32, i32* %4, align 4
  %20 = sext i32 %19 to i64
  %21 = getelementptr inbounds [999 x %struct.anon], [999 x %struct.anon]* @book, i64 0, i64 %20
  %22 = getelementptr inbounds %struct.anon, %struct.anon* %21, i32 0, i32 0
  %23 = load i32, i32* %4, align 4
  %24 = sext i32 %23 to i64
  %25 = getelementptr inbounds [999 x %struct.anon], [999 x %struct.anon]* @book, i64 0, i64 %24
  %26 = getelementptr inbounds %struct.anon, %struct.anon* %25, i32 0, i32 1
  %27 = getelementptr inbounds [27 x i8], [27 x i8]* %26, i64 0, i64 0
  %28 = call i32 (i8*, ...) @__isoc99_scanf(i8* getelementptr inbounds ([5 x i8], [5 x i8]* @.str.1, i64 0, i64 0), i32* %22, i8* %27)
  %29 = load i32, i32* %4, align 4
  %30 = sext i32 %29 to i64
  %31 = getelementptr inbounds [999 x %struct.anon], [999 x %struct.anon]* @book, i64 0, i64 %30
  %32 = getelementptr inbounds %struct.anon, %struct.anon* %31, i32 0, i32 1
  %33 = getelementptr inbounds [27 x i8], [27 x i8]* %32, i64 0, i64 0
  %34 = call i64 @strlen(i8* %33) #4
  %35 = trunc i64 %34 to i32
  store i32 %35, i32* %8, align 4
  store i32 0, i32* %5, align 4
  br label %36

36:                                               ; preds = %91, %18
  %37 = load i32, i32* %5, align 4
  %38 = load i32, i32* %8, align 4
  %39 = icmp slt i32 %37, %38
  br i1 %39, label %40, label %94

40:                                               ; preds = %36
  %41 = load i32, i32* %4, align 4
  %42 = sext i32 %41 to i64
  %43 = getelementptr inbounds [999 x %struct.anon], [999 x %struct.anon]* @book, i64 0, i64 %42
  %44 = getelementptr inbounds %struct.anon, %struct.anon* %43, i32 0, i32 1
  %45 = load i32, i32* %5, align 4
  %46 = sext i32 %45 to i64
  %47 = getelementptr inbounds [27 x i8], [27 x i8]* %44, i64 0, i64 %46
  %48 = load i8, i8* %47, align 1
  %49 = sext i8 %48 to i32
  %50 = icmp sle i32 %49, 90
  br i1 %50, label %51, label %90

51:                                               ; preds = %40
  %52 = load i32, i32* %4, align 4
  %53 = sext i32 %52 to i64
  %54 = getelementptr inbounds [999 x %struct.anon], [999 x %struct.anon]* @book, i64 0, i64 %53
  %55 = getelementptr inbounds %struct.anon, %struct.anon* %54, i32 0, i32 1
  %56 = load i32, i32* %5, align 4
  %57 = sext i32 %56 to i64
  %58 = getelementptr inbounds [27 x i8], [27 x i8]* %55, i64 0, i64 %57
  %59 = load i8, i8* %58, align 1
  %60 = sext i8 %59 to i32
  %61 = icmp sge i32 %60, 65
  br i1 %61, label %62, label %90

62:                                               ; preds = %51
  %63 = load i32, i32* %4, align 4
  %64 = sext i32 %63 to i64
  %65 = getelementptr inbounds [999 x %struct.anon], [999 x %struct.anon]* @book, i64 0, i64 %64
  %66 = getelementptr inbounds %struct.anon, %struct.anon* %65, i32 0, i32 1
  %67 = load i32, i32* %5, align 4
  %68 = sext i32 %67 to i64
  %69 = getelementptr inbounds [27 x i8], [27 x i8]* %66, i64 0, i64 %68
  %70 = load i8, i8* %69, align 1
  %71 = sext i8 %70 to i32
  %72 = sub nsw i32 %71, 65
  store i32 %72, i32* %9, align 4
  %73 = load i32, i32* %9, align 4
  %74 = sext i32 %73 to i64
  %75 = getelementptr inbounds [26 x i32], [26 x i32]* %3, i64 0, i64 %74
  %76 = load i32, i32* %75, align 4
  %77 = add nsw i32 %76, 1
  store i32 %77, i32* %75, align 4
  %78 = load i32, i32* %9, align 4
  %79 = sext i32 %78 to i64
  %80 = getelementptr inbounds [26 x i32], [26 x i32]* %3, i64 0, i64 %79
  %81 = load i32, i32* %80, align 4
  %82 = load i32, i32* %7, align 4
  %83 = icmp sgt i32 %81, %82
  br i1 %83, label %84, label %89

84:                                               ; preds = %62
  %85 = load i32, i32* %9, align 4
  %86 = sext i32 %85 to i64
  %87 = getelementptr inbounds [26 x i32], [26 x i32]* %3, i64 0, i64 %86
  %88 = load i32, i32* %87, align 4
  store i32 %88, i32* %7, align 4
  br label %89

89:                                               ; preds = %84, %62
  br label %90

90:                                               ; preds = %89, %51, %40
  br label %91

91:                                               ; preds = %90
  %92 = load i32, i32* %5, align 4
  %93 = add nsw i32 %92, 1
  store i32 %93, i32* %5, align 4
  br label %36

94:                                               ; preds = %36
  br label %95

95:                                               ; preds = %94
  %96 = load i32, i32* %4, align 4
  %97 = add nsw i32 %96, 1
  store i32 %97, i32* %4, align 4
  br label %14

98:                                               ; preds = %14
  store i32 0, i32* %4, align 4
  br label %99

99:                                               ; preds = %118, %98
  %100 = load i32, i32* %4, align 4
  %101 = icmp slt i32 %100, 26
  br i1 %101, label %102, label %121

102:                                              ; preds = %99
  %103 = load i32, i32* %4, align 4
  %104 = sext i32 %103 to i64
  %105 = getelementptr inbounds [26 x i32], [26 x i32]* %3, i64 0, i64 %104
  %106 = load i32, i32* %105, align 4
  %107 = load i32, i32* %7, align 4
  %108 = icmp eq i32 %106, %107
  br i1 %108, label %109, label %117

109:                                              ; preds = %102
  %110 = load i32, i32* %4, align 4
  %111 = add nsw i32 %110, 65
  %112 = trunc i32 %111 to i8
  store i8 %112, i8* %10, align 1
  %113 = load i8, i8* %10, align 1
  %114 = sext i8 %113 to i32
  %115 = load i32, i32* %7, align 4
  %116 = call i32 (i8*, ...) @printf(i8* getelementptr inbounds ([7 x i8], [7 x i8]* @.str.2, i64 0, i64 0), i32 %114, i32 %115)
  br label %121

117:                                              ; preds = %102
  br label %118

118:                                              ; preds = %117
  %119 = load i32, i32* %4, align 4
  %120 = add nsw i32 %119, 1
  store i32 %120, i32* %4, align 4
  br label %99

121:                                              ; preds = %109, %99
  store i32 0, i32* %6, align 4
  br label %122

122:                                              ; preds = %163, %121
  %123 = load i32, i32* %6, align 4
  %124 = load i32, i32* %2, align 4
  %125 = icmp slt i32 %123, %124
  br i1 %125, label %126, label %166

126:                                              ; preds = %122
  %127 = load i32, i32* %6, align 4
  %128 = sext i32 %127 to i64
  %129 = getelementptr inbounds [999 x %struct.anon], [999 x %struct.anon]* @book, i64 0, i64 %128
  %130 = getelementptr inbounds %struct.anon, %struct.anon* %129, i32 0, i32 1
  %131 = getelementptr inbounds [27 x i8], [27 x i8]* %130, i64 0, i64 0
  %132 = call i64 @strlen(i8* %131) #4
  %133 = trunc i64 %132 to i32
  store i32 %133, i32* %11, align 4
  store i32 0, i32* %5, align 4
  br label %134

134:                                              ; preds = %159, %126
  %135 = load i32, i32* %5, align 4
  %136 = load i32, i32* %11, align 4
  %137 = icmp slt i32 %135, %136
  br i1 %137, label %138, label %162

138:                                              ; preds = %134
  %139 = load i32, i32* %6, align 4
  %140 = sext i32 %139 to i64
  %141 = getelementptr inbounds [999 x %struct.anon], [999 x %struct.anon]* @book, i64 0, i64 %140
  %142 = getelementptr inbounds %struct.anon, %struct.anon* %141, i32 0, i32 1
  %143 = load i32, i32* %5, align 4
  %144 = sext i32 %143 to i64
  %145 = getelementptr inbounds [27 x i8], [27 x i8]* %142, i64 0, i64 %144
  %146 = load i8, i8* %145, align 1
  %147 = sext i8 %146 to i32
  %148 = load i32, i32* %4, align 4
  %149 = add nsw i32 %148, 65
  %150 = icmp eq i32 %147, %149
  br i1 %150, label %151, label %158

151:                                              ; preds = %138
  %152 = load i32, i32* %6, align 4
  %153 = sext i32 %152 to i64
  %154 = getelementptr inbounds [999 x %struct.anon], [999 x %struct.anon]* @book, i64 0, i64 %153
  %155 = getelementptr inbounds %struct.anon, %struct.anon* %154, i32 0, i32 0
  %156 = load i32, i32* %155, align 16
  %157 = call i32 (i8*, ...) @printf(i8* getelementptr inbounds ([4 x i8], [4 x i8]* @.str.3, i64 0, i64 0), i32 %156)
  br label %158

158:                                              ; preds = %151, %138
  br label %159

159:                                              ; preds = %158
  %160 = load i32, i32* %5, align 4
  %161 = add nsw i32 %160, 1
  store i32 %161, i32* %5, align 4
  br label %134

162:                                              ; preds = %134
  br label %163

163:                                              ; preds = %162
  %164 = load i32, i32* %6, align 4
  %165 = add nsw i32 %164, 1
  store i32 %165, i32* %6, align 4
  br label %122

166:                                              ; preds = %122
  ret i32 0
}

; Function Attrs: argmemonly nounwind willreturn
declare void @llvm.memset.p0i8.i64(i8* nocapture writeonly, i8, i64, i1 immarg) #1

declare dso_local i32 @__isoc99_scanf(i8*, ...) #2

; Function Attrs: nounwind readonly
declare dso_local i64 @strlen(i8*) #3

declare dso_local i32 @printf(i8*, ...) #2


!llvm.module.flags = !{!0}
!llvm.ident = !{!1}

!0 = !{i32 1, !"wchar_size", i32 4}
!1 = !{!"clang version 10.0.0-4ubuntu1 "}
